target datalayout = "e-m:e-p270:32:32-p271:32:32-p272:64:64-i64:64-i128:128-f80:128-n8:16:32:64-S128"
target triple = "x86_64-pc-linux-gnu"

%struct.ComplexMatrix2 = type { [2 x [2 x double]], [2 x [2 x double]] }

; Function Attrs: nounwind uwtable
define void @QuESTAssert(i32 noundef %0, i32 noundef %1, ptr noundef %2) #0 {
  %4 = alloca i32, align 4
  %5 = alloca i32, align 4
  %6 = alloca ptr, align 8
  store i32 %0, ptr %4, align 4, !tbaa !9
  store i32 %1, ptr %5, align 4, !tbaa !9
  store ptr %2, ptr %6, align 8, !tbaa !4
  %7 = load i32, ptr %4, align 4, !tbaa !9
  %8 = icmp ne i32 %7, 0
  br i1 %8, label %15, label %9

9:                                                ; preds = %3
  %10 = load i32, ptr %5, align 4, !tbaa !9
  %11 = zext i32 %10 to i64
  %12 = getelementptr inbounds nuw [92 x ptr], ptr @errorMessages, i64 0, i64 %11
  %13 = load ptr, ptr %12, align 8, !tbaa !4
  %14 = load ptr, ptr %6, align 8, !tbaa !4
  call void @invalidQuESTInputError(ptr noundef %13, ptr noundef %14)
  br label %15

15:                                               ; preds = %9, %3
  ret void
}

; Function Attrs: nounwind uwtable
define i32 @isMatrix2Unitary(ptr noundef byval(%struct.ComplexMatrix2) align 8 %0) #0 {
  %2 = alloca i32, align 4
  %3 = alloca double, align 8
  %4 = alloca double, align 8
  %5 = alloca double, align 8
  %6 = alloca i32, align 4
  %7 = alloca i32, align 4
  %8 = alloca i32, align 4
  %9 = alloca i32, align 4
  %10 = alloca double, align 8
  %11 = alloca double, align 8
  call void @llvm.lifetime.start.p0(i64 8, ptr %3) #7
  store double 1.000000e-26, ptr %3, align 8, !tbaa !15
  call void @llvm.lifetime.start.p0(i64 8, ptr %4) #7
  call void @llvm.lifetime.start.p0(i64 8, ptr %5) #7
  call void @llvm.lifetime.start.p0(i64 4, ptr %6) #7
  store i32 0, ptr %6, align 4, !tbaa !9
  br label %12

12:                                               ; preds = %131, %1
  %13 = load i32, ptr %6, align 4, !tbaa !9
  %14 = icmp slt i32 %13, 2
  br i1 %14, label %16, label %15

15:                                               ; preds = %12
  store i32 2, ptr %7, align 4
  br label %134

16:                                               ; preds = %12
  call void @llvm.lifetime.start.p0(i64 4, ptr %8) #7
  store i32 0, ptr %8, align 4, !tbaa !9
  br label %17

17:                                               ; preds = %125, %16
  %18 = load i32, ptr %8, align 4, !tbaa !9
  %19 = icmp slt i32 %18, 2
  br i1 %19, label %21, label %20

20:                                               ; preds = %17
  store i32 5, ptr %7, align 4
  br label %128

21:                                               ; preds = %17
  store double 0.000000e+00, ptr %4, align 8, !tbaa !15
  store double 0.000000e+00, ptr %5, align 8, !tbaa !15
  call void @llvm.lifetime.start.p0(i64 4, ptr %9) #7
  store i32 0, ptr %9, align 4, !tbaa !9
  br label %22

22:                                               ; preds = %100, %21
  %23 = load i32, ptr %9, align 4, !tbaa !9
  %24 = icmp slt i32 %23, 2
  br i1 %24, label %26, label %25

25:                                               ; preds = %22
  store i32 8, ptr %7, align 4
  call void @llvm.lifetime.end.p0(i64 4, ptr %9) #7
  br label %103

26:                                               ; preds = %22
  %27 = getelementptr inbounds nuw %struct.ComplexMatrix2, ptr %0, i32 0, i32 0
  %28 = load i32, ptr %6, align 4, !tbaa !9
  %29 = sext i32 %28 to i64
  %30 = getelementptr inbounds [2 x [2 x double]], ptr %27, i64 0, i64 %29
  %31 = load i32, ptr %9, align 4, !tbaa !9
  %32 = sext i32 %31 to i64
  %33 = getelementptr inbounds [2 x double], ptr %30, i64 0, i64 %32
  %34 = load double, ptr %33, align 8, !tbaa !15
  %35 = getelementptr inbounds nuw %struct.ComplexMatrix2, ptr %0, i32 0, i32 0
  %36 = load i32, ptr %8, align 4, !tbaa !9
  %37 = sext i32 %36 to i64
  %38 = getelementptr inbounds [2 x [2 x double]], ptr %35, i64 0, i64 %37
  %39 = load i32, ptr %9, align 4, !tbaa !9
  %40 = sext i32 %39 to i64
  %41 = getelementptr inbounds [2 x double], ptr %38, i64 0, i64 %40
  %42 = load double, ptr %41, align 8, !tbaa !15
  %43 = getelementptr inbounds nuw %struct.ComplexMatrix2, ptr %0, i32 0, i32 1
  %44 = load i32, ptr %6, align 4, !tbaa !9
  %45 = sext i32 %44 to i64
  %46 = getelementptr inbounds [2 x [2 x double]], ptr %43, i64 0, i64 %45
  %47 = load i32, ptr %9, align 4, !tbaa !9
  %48 = sext i32 %47 to i64
  %49 = getelementptr inbounds [2 x double], ptr %46, i64 0, i64 %48
  %50 = load double, ptr %49, align 8, !tbaa !15
  %51 = getelementptr inbounds nuw %struct.ComplexMatrix2, ptr %0, i32 0, i32 1
  %52 = load i32, ptr %8, align 4, !tbaa !9
  %53 = sext i32 %52 to i64
  %54 = getelementptr inbounds [2 x [2 x double]], ptr %51, i64 0, i64 %53
  %55 = load i32, ptr %9, align 4, !tbaa !9
  %56 = sext i32 %55 to i64
  %57 = getelementptr inbounds [2 x double], ptr %54, i64 0, i64 %56
  %58 = load double, ptr %57, align 8, !tbaa !15
  %59 = fmul double %50, %58
  %60 = call double @llvm.fmuladd.f64(double %34, double %42, double %59)
  %61 = load double, ptr %4, align 8, !tbaa !15
  %62 = fadd double %61, %60
  store double %62, ptr %4, align 8, !tbaa !15
  %63 = getelementptr inbounds nuw %struct.ComplexMatrix2, ptr %0, i32 0, i32 1
  %64 = load i32, ptr %6, align 4, !tbaa !9
  %65 = sext i32 %64 to i64
  %66 = getelementptr inbounds [2 x [2 x double]], ptr %63, i64 0, i64 %65
  %67 = load i32, ptr %9, align 4, !tbaa !9
  %68 = sext i32 %67 to i64
  %69 = getelementptr inbounds [2 x double], ptr %66, i64 0, i64 %68
  %70 = load double, ptr %69, align 8, !tbaa !15
  %71 = getelementptr inbounds nuw %struct.ComplexMatrix2, ptr %0, i32 0, i32 0
  %72 = load i32, ptr %8, align 4, !tbaa !9
  %73 = sext i32 %72 to i64
  %74 = getelementptr inbounds [2 x [2 x double]], ptr %71, i64 0, i64 %73
  %75 = load i32, ptr %9, align 4, !tbaa !9
  %76 = sext i32 %75 to i64
  %77 = getelementptr inbounds [2 x double], ptr %74, i64 0, i64 %76
  %78 = load double, ptr %77, align 8, !tbaa !15
  %79 = getelementptr inbounds nuw %struct.ComplexMatrix2, ptr %0, i32 0, i32 0
  %80 = load i32, ptr %6, align 4, !tbaa !9
  %81 = sext i32 %80 to i64
  %82 = getelementptr inbounds [2 x [2 x double]], ptr %79, i64 0, i64 %81
  %83 = load i32, ptr %9, align 4, !tbaa !9
  %84 = sext i32 %83 to i64
  %85 = getelementptr inbounds [2 x double], ptr %82, i64 0, i64 %84
  %86 = load double, ptr %85, align 8, !tbaa !15
  %87 = getelementptr inbounds nuw %struct.ComplexMatrix2, ptr %0, i32 0, i32 1
  %88 = load i32, ptr %8, align 4, !tbaa !9
  %89 = sext i32 %88 to i64
  %90 = getelementptr inbounds [2 x [2 x double]], ptr %87, i64 0, i64 %89
  %91 = load i32, ptr %9, align 4, !tbaa !9
  %92 = sext i32 %91 to i64
  %93 = getelementptr inbounds [2 x double], ptr %90, i64 0, i64 %92
  %94 = load double, ptr %93, align 8, !tbaa !15
  %95 = fmul double %86, %94
  %96 = fneg double %95
  %97 = call double @llvm.fmuladd.f64(double %70, double %78, double %96)
  %98 = load double, ptr %5, align 8, !tbaa !15
  %99 = fadd double %98, %97
  store double %99, ptr %5, align 8, !tbaa !15
  br label %100

100:                                              ; preds = %26
  %101 = load i32, ptr %9, align 4, !tbaa !9
  %102 = add nsw i32 %101, 1
  store i32 %102, ptr %9, align 4, !tbaa !9
  br label %22

103:                                              ; preds = %25
  call void @llvm.lifetime.start.p0(i64 8, ptr %10) #7
  %104 = load double, ptr %4, align 8, !tbaa !15
  %105 = load i32, ptr %6, align 4, !tbaa !9
  %106 = load i32, ptr %8, align 4, !tbaa !9
  %107 = icmp eq i32 %105, %106
  %108 = zext i1 %107 to i32
  %109 = sitofp i32 %108 to double
  %110 = fsub double %104, %109
  store double %110, ptr %10, align 8, !tbaa !15
  call void @llvm.lifetime.start.p0(i64 8, ptr %11) #7
  %111 = load double, ptr %5, align 8, !tbaa !15
  %112 = load double, ptr %5, align 8, !tbaa !15
  %113 = load double, ptr %10, align 8, !tbaa !15
  %114 = load double, ptr %10, align 8, !tbaa !15
  %115 = fmul double %113, %114
  %116 = call double @llvm.fmuladd.f64(double %111, double %112, double %115)
  store double %116, ptr %11, align 8, !tbaa !15
  %117 = load double, ptr %11, align 8, !tbaa !15
  %118 = load double, ptr %3, align 8, !tbaa !15
  %119 = fcmp ogt double %117, %118
  br i1 %119, label %120, label %121

120:                                              ; preds = %103
  store i32 0, ptr %2, align 4
  store i32 1, ptr %7, align 4
  br label %122

121:                                              ; preds = %103
  store i32 0, ptr %7, align 4
  br label %122

122:                                              ; preds = %121, %120
  call void @llvm.lifetime.end.p0(i64 8, ptr %11) #7
  call void @llvm.lifetime.end.p0(i64 8, ptr %10) #7
  %123 = load i32, ptr %7, align 4
  switch i32 %123, label %128 [
    i32 0, label %124
  ]

124:                                              ; preds = %122
  br label %125

125:                                              ; preds = %124
  %126 = load i32, ptr %8, align 4, !tbaa !9
  %127 = add nsw i32 %126, 1
  store i32 %127, ptr %8, align 4, !tbaa !9
  br label %17

128:                                              ; preds = %122, %20
  call void @llvm.lifetime.end.p0(i64 4, ptr %8) #7
  %129 = load i32, ptr %7, align 4
  switch i32 %129, label %134 [
    i32 5, label %130
  ]

130:                                              ; preds = %128
  br label %131

131:                                              ; preds = %130
  %132 = load i32, ptr %6, align 4, !tbaa !9
  %133 = add nsw i32 %132, 1
  store i32 %133, ptr %6, align 4, !tbaa !9
  br label %12

134:                                              ; preds = %128, %15
  call void @llvm.lifetime.end.p0(i64 4, ptr %6) #7
  %135 = load i32, ptr %7, align 4
  switch i32 %135, label %137 [
    i32 2, label %136
  ]

136:                                              ; preds = %134
  store i32 1, ptr %2, align 4
  store i32 1, ptr %7, align 4
  br label %137

137:                                              ; preds = %136, %134
  call void @llvm.lifetime.end.p0(i64 8, ptr %5) #7
  call void @llvm.lifetime.end.p0(i64 8, ptr %4) #7
  call void @llvm.lifetime.end.p0(i64 8, ptr %3) #7
  %138 = load i32, ptr %2, align 4
  ret i32 %138
}

; Function Attrs: nounwind uwtable
define void @validateOneQubitUnitaryMatrix(ptr noundef byval(%struct.ComplexMatrix2) align 8 %0, ptr noundef %1) #0 {
  %3 = alloca ptr, align 8
  store ptr %1, ptr %3, align 8, !tbaa !4
  %4 = call i32 @isMatrix2Unitary(ptr noundef byval(%struct.ComplexMatrix2) align 8 %0)
  %5 = load ptr, ptr %3, align 8, !tbaa !4
  call void @QuESTAssert(i32 noundef %4, i32 noundef 22, ptr noundef %5)
  ret void
}