; Function Attrs: nounwind uwtable
define void @validateOneQubitUnitaryMatrix(ptr noundef readonly byval(%struct.ComplexMatrix2) align 8 captures(none) %0, ptr noundef %1) local_unnamed_addr #3 {
  %3 = getelementptr inbounds nuw i8, ptr %0, i64 32
  br label %.preheader46.i

.preheader46.i:                                   ; preds = %.critedge.i, %2
  %.not54.i = phi i1 [ true, %2 ], [ false, %.critedge.i ]
  %indvars.iv63.i = phi i64 [ 0, %2 ], [ 1, %.critedge.i ]
  br label %.preheader.i

4:                                                ; preds = %5
  br i1 %.not.i, label %.preheader.i, label %.critedge.i

.preheader.i:                                     ; preds = %4, %.preheader46.i
  %.not.i = phi i1 [ true, %.preheader46.i ], [ false, %4 ]
  %indvars.iv60.i = phi i64 [ 0, %.preheader46.i ], [ 1, %4 ]
  br label %12

5:                                                ; preds = %12
  %6 = icmp eq i64 %indvars.iv63.i, %indvars.iv60.i
  %7 = uitofp i1 %6 to double
  %8 = fsub double %24, %7
  %9 = fmul double %8, %8
  %10 = tail call double @llvm.fmuladd.f64(double %28, double %28, double %9)
  %11 = fcmp ule double %10, 1.000000e-26
  br i1 %11, label %4, label %29

12:                                               ; preds = %12, %.preheader.i
  %13 = phi i1 [ true, %.preheader.i ], [ false, %12 ]
  %indvars.iv.i = phi i64 [ 0, %.preheader.i ], [ 1, %12 ]
  %.03851.i = phi double [ 0.000000e+00, %.preheader.i ], [ %24, %12 ]
  %.04549.i = phi double [ 0.000000e+00, %.preheader.i ], [ %28, %12 ]
  %14 = getelementptr inbounds nuw [2 x [2 x double]], ptr %0, i64 0, i64 %indvars.iv63.i, i64 %indvars.iv.i
  %15 = load double, ptr %14, align 8, !tbaa !9
  %16 = getelementptr inbounds nuw [2 x [2 x double]], ptr %0, i64 0, i64 %indvars.iv60.i, i64 %indvars.iv.i
  %17 = load double, ptr %16, align 8, !tbaa !9
  %18 = getelementptr inbounds nuw [2 x [2 x double]], ptr %3, i64 0, i64 %indvars.iv63.i, i64 %indvars.iv.i
  %19 = load double, ptr %18, align 8, !tbaa !9
  %20 = getelementptr inbounds nuw [2 x [2 x double]], ptr %3, i64 0, i64 %indvars.iv60.i, i64 %indvars.iv.i
  %21 = load double, ptr %20, align 8, !tbaa !9
  %22 = fmul double %19, %21
  %23 = tail call double @llvm.fmuladd.f64(double %15, double %17, double %22)
  %24 = fadd double %.03851.i, %23
  %25 = fneg double %21
  %26 = fmul double %15, %25
  %27 = tail call double @llvm.fmuladd.f64(double %19, double %17, double %26)
  %28 = fadd double %.04549.i, %27
  br i1 %13, label %12, label %5

.critedge.i:                                      ; preds = %4
  br i1 %.not54.i, label %.preheader46.i, label %QuESTAssert.exit

29:                                               ; preds = %5
  tail call void @invalidQuESTInputError(ptr noundef nonnull @.str.24, ptr noundef %1)
  br label %QuESTAssert.exit

QuESTAssert.exit:                                 ; preds = %.critedge.i, %29
  ret void
}